--- !tapi-tbd
tbd-version:          4
targets:              [ arm64-bridgeos ]
install-name:         '/usr/lib/libMacEFIHostInterface.dylib'
exports:
  - targets:          [ arm64-bridgeos ]
    symbols:          [ __Z15mem_log_consolePK10__CFStringz,
                       __ZN19MacEFIHostInterface12stream_errorERNSt3__112basic_stringIcNS0_11char_traitsIcEENS0_9allocatorIcEEEES6_i,
                       __ZN19MacEFIHostInterface16EFIHostInterface14allowX86ToBootEv,
                       __ZN19MacEFIHostInterface16EFIHostInterface14save_me_regionEv,
                       __ZN19MacEFIHostInterface16EFIHostInterface17clear_event_tokenEjiPNSt3__112basic_stringIcNS1_11char_traitsIcEENS1_9allocatorIcEEEE,
                       __ZN19MacEFIHostInterface16EFIHostInterface17restore_me_regionEv,
                       __ZN19MacEFIHostInterface16EFIHostInterface17x86StateInterface12getx86SstateEv,
                       __ZN19MacEFIHostInterface16EFIHostInterface18init_espi_firmwareEPKc,
                       __ZN19MacEFIHostInterface16EFIHostInterface18save_espi_snapshotEv,
                       __ZN19MacEFIHostInterface16EFIHostInterface19save_nvram_snapshotEv,
                       __ZN19MacEFIHostInterface16EFIHostInterface21modify_first_boot_keyEhNS_6detail13KeyModifyTypeE,
                       __ZN19MacEFIHostInterface16EFIHostInterface23register_event_callbackEPFv30MacEFIManagerNotificationEventjPvEP16dispatch_queue_sS2_,
                       __ZN19MacEFIHostInterface16EFIHostInterface25unregister_event_callbackEP16dispatch_queue_sPv,
                       __ZN19MacEFIHostInterface18NvramHostInterface10nvramClearEv,
                       __ZN19MacEFIHostInterface18NvramHostInterface15saveNVRAMToFileEv,
                       __ZN19MacEFIHostInterface18NvramHostInterface18setBridgeOSVersionEv,
                       __ZN19MacEFIHostInterface18NvramHostInterface19deleteNVRAMVariableERNSt3__112basic_stringIcNS1_11char_traitsIcEENS1_9allocatorIcEEEE,
                       __ZN19MacEFIHostInterface18NvramHostInterface20restoreNVRAMFromFileEv,
                       __ZN19MacEFIHostInterface18NvramHostInterface20setCriticalVariablesEv,
                       __ZN19MacEFIHostInterface18NvramHostInterface21getNVRAMVariableValueERKNSt3__112basic_stringIcNS1_11char_traitsIcEENS1_9allocatorIcEEEERS7_,
                       __ZN19MacEFIHostInterface18NvramHostInterface21setNVRAMVariableValueERNSt3__112basic_stringIcNS1_11char_traitsIcEENS1_9allocatorIcEEEE,
                       __ZN19MacEFIHostInterface18NvramHostInterface25VariableNameTypeInterface3vntE,
                       __ZN19MacEFIHostInterface18NvramHostInterface26setBridgeOSBootSessionUUIDEv,
                       __ZN19MacEFIHostInterface18NvramHostInterface28setBridgeOSMobileGestaltKeysEv,
                       __ZN19MacEFIHostInterface18NvramHostInterface29setBridgeOSPanicWatchdogStateEv,
                       __ZN19MacEFIHostInterface18NvramHostInterface37setNVRAMVariablesFromPropertyListFileERKNSt3__112basic_stringIcNS1_11char_traitsIcEENS1_9allocatorIcEEEEbb,
                       __ZN19MacEFIHostInterface4initE21MacEFIManagerTaskType,
                       __ZN19MacEFIHostInterface4util18createMiscFilePathEPKc,
                       __ZN19MacEFIHostInterface6detail12SMCInterface12get_key_infoEjPjS2_P14SMCParamStructS4_mPm,
                       __ZN19MacEFIHostInterface6detail12SMCInterface12read_smc_keyEjPjP14SMCParamStructS4_jmPm,
                       __ZN19MacEFIHostInterface6detail12SMCInterface13readKeySimpleEjRNSt3__16vectorIhNS2_9allocatorIhEEEE,
                       __ZN19MacEFIHostInterface6detail12SMCInterface13write_smc_keyEjPjP14SMCParamStructS4_jmPm,
                       __ZN19MacEFIHostInterface6detail12SMCInterface14writeKeySimpleEjRNSt3__16vectorIhNS2_9allocatorIhEEEE,
                       __ZN19MacEFIHostInterface6detail12SMCInterface18read_nvram_smc_keyEjPh,
                       __ZN19MacEFIHostInterface6detail12SMCInterface19write_nvram_smc_keyEjh,
                       __ZN19MacEFIHostInterface6detail13FileInterface11remove_fileE11SectionType,
                       __ZN19MacEFIHostInterface6detail13FileInterface11remove_fileEPKc,
                       __ZN19MacEFIHostInterface6detail13FileInterface11verify_fileE11SectionType,
                       __ZN19MacEFIHostInterface6detail13FileInterface13get_file_sizeEPKc,
                       __ZN19MacEFIHostInterface6detail13FileInterface16load_file_bufferEPKcPcj,
                       __ZN19MacEFIHostInterface6detail13FileInterface17verify_nvram_fileEv,
                       __ZN19MacEFIHostInterface6detail13FileInterface18save_nvram_to_fileEv,
                       __ZN19MacEFIHostInterface6detail13FileInterface20save_section_to_fileE11SectionType,
                       __ZN19MacEFIHostInterface6detail13FileInterface20verify_intel_me_fileEv,
                       __ZN19MacEFIHostInterface6detail13FileInterface21save_intel_me_to_fileEv,
                       __ZN19MacEFIHostInterface6detail13FileInterface23restore_nvram_from_fileEv,
                       __ZN19MacEFIHostInterface6detail13FileInterface25restore_section_from_fileE11SectionType,
                       __ZN19MacEFIHostInterface6detail13FileInterface26restore_intel_me_from_fileEv,
                       __ZN19MacEFIHostInterface6detail13FileInterface27get_file_name_for_signatureE11SectionType,
                       __ZN19MacEFIHostInterface6detail13FileInterface27remove_nvram_overrides_fileEv,
                       __ZN19MacEFIHostInterface6detail13FileInterface33restore_nvram_overrides_from_fileEv,
                       __ZN19MacEFIHostInterface6detail19DeviceTreeInterface16is_saf_supportedEv,
                       __ZN19MacEFIHostInterface6detail19DeviceTreeInterface24get_device_tree_propertyEPKcS3_Pvi,
                       __ZN19MacEFIHostInterface7cleanupEv,
                       _clearEventToken,
                       _createEFIHostInterface,
                       _createNvramHostInterface,
                       _deleteNVRAMVariable,
                       _destroyEFIHostInterface,
                       _destroyNvramHostInterface,
                       _getNVRAMVariable,
                       _hostInterfaceDeinitialize,
                       _hostInterfaceInitialize,
                       _hostInterfaceInternalInitialize,
                       _registerEFICallback,
                       _saveNVRAMSnapshot,
                       _saveeSPISnapshot,
                       _setNVRAMVariable,
                       _unregisterEFICallback ]
...
